target datalayout = "e-m:e-p270:32:32-p271:32:32-p272:64:64-i64:64-i128:128-f80:128-n8:16:32:64-S128"
target triple = "x86_64-pc-linux-gnu"

%struct.SequenceHeader = type { i32, i32, i32, i32, i8, i32, i32, i8, i32, i32, %struct.OrderHintInfo, i8, i8, i8, i8, i8, i8, i8, i8, i8, i8, i8, i8, i8, i8, i32, i8, i8, i32, i32, i32, i32, i32, i32, i32, i8, i8, i32, [32 x i32], i32, %struct.aom_timing, i8, %struct.aom_dec_model_info, i8, [32 x i8], [32 x i8], [33 x %struct.aom_dec_model_op_parameters] }
%struct.OrderHintInfo = type { i32, i32, i32, i32 }
%struct.aom_timing = type { i32, i32, i32, i32 }
%struct.aom_dec_model_info = type { i32, i32, i32, i32 }
%struct.aom_dec_model_op_parameters = type { i32, i64, i64, i32, i32, i32, i32, i32 }

@.str.8 = private unnamed_addr constant [54 x i8] c"sRGB colorspace not compatible with specified profile\00", align 1
@.str.9 = private unnamed_addr constant [64 x i8] c"Identity CICP Matrix incompatible with non 4:4:4 color sampling\00", align 1
@.str.15 = private unnamed_addr constant [42 x i8] c"Unsupported profile/bit-depth combination\00", align 1

; Function Attrs: nounwind uwtable
define internal void @read_bitdepth(ptr noundef %0, ptr noundef %1, ptr noundef %2) #0 {
  %4 = alloca ptr, align 8
  %5 = alloca ptr, align 8
  %6 = alloca ptr, align 8
  %7 = alloca i32, align 4
  %8 = alloca i32, align 4
  store ptr %0, ptr %4, align 8
  store ptr %1, ptr %5, align 8
  store ptr %2, ptr %6, align 8
  %9 = load ptr, ptr %4, align 8
  %10 = call i32 @aom_rb_read_bit(ptr noundef %9)
  store i32 %10, ptr %7, align 4
  %11 = load ptr, ptr %5, align 8
  %12 = getelementptr inbounds nuw %struct.SequenceHeader, ptr %11, i32 0, i32 24
  %13 = load i8, ptr %12, align 1
  %14 = sext i8 %13 to i32
  %15 = icmp eq i32 %14, 2
  br i1 %15, label %16, label %27

16:                                               ; preds = %3
  %17 = load i32, ptr %7, align 4
  %18 = icmp ne i32 %17, 0
  br i1 %18, label %19, label %27

19:                                               ; preds = %16
  %20 = load ptr, ptr %4, align 8
  %21 = call i32 @aom_rb_read_bit(ptr noundef %20)
  store i32 %21, ptr %8, align 4
  %22 = load i32, ptr %8, align 4
  %23 = icmp ne i32 %22, 0
  %24 = select i1 %23, i32 12, i32 10
  %25 = load ptr, ptr %5, align 8
  %26 = getelementptr inbounds nuw %struct.SequenceHeader, ptr %25, i32 0, i32 25
  store i32 %24, ptr %26, align 8
  br label %42

27:                                               ; preds = %16, %3
  %28 = load ptr, ptr %5, align 8
  %29 = getelementptr inbounds nuw %struct.SequenceHeader, ptr %28, i32 0, i32 24
  %30 = load i8, ptr %29, align 1
  %31 = sext i8 %30 to i32
  %32 = icmp sle i32 %31, 2
  br i1 %32, label %33, label %39

33:                                               ; preds = %27
  %34 = load i32, ptr %7, align 4
  %35 = icmp ne i32 %34, 0
  %36 = select i1 %35, i32 10, i32 8
  %37 = load ptr, ptr %5, align 8
  %38 = getelementptr inbounds nuw %struct.SequenceHeader, ptr %37, i32 0, i32 25
  store i32 %36, ptr %38, align 8
  br label %41

39:                                               ; preds = %27
  %40 = load ptr, ptr %6, align 8
  call void (ptr, i32, ptr, ...) @aom_internal_error(ptr noundef %40, i32 noundef 5, ptr noundef @.str.15)
  br label %41

41:                                               ; preds = %39, %33
  br label %42

42:                                               ; preds = %41, %19
  ret void
}

; Function Attrs: nounwind uwtable
define hidden void @av1_read_color_config(ptr noundef %0, i32 noundef %1, ptr noundef %2, ptr noundef %3) #0 {
  %5 = alloca ptr, align 8
  %6 = alloca i32, align 4
  %7 = alloca ptr, align 8
  %8 = alloca ptr, align 8
  %9 = alloca i32, align 4
  %10 = alloca i32, align 4
  store ptr %0, ptr %5, align 8
  store i32 %1, ptr %6, align 4
  store ptr %2, ptr %7, align 8
  store ptr %3, ptr %8, align 8
  %11 = load ptr, ptr %5, align 8
  %12 = load ptr, ptr %7, align 8
  %13 = load ptr, ptr %8, align 8
  call void @read_bitdepth(ptr noundef %11, ptr noundef %12, ptr noundef %13)
  %14 = load ptr, ptr %7, align 8
  %15 = getelementptr inbounds nuw %struct.SequenceHeader, ptr %14, i32 0, i32 25
  %16 = load i32, ptr %15, align 8
  %17 = icmp ugt i32 %16, 8
  br i1 %17, label %22, label %18

18:                                               ; preds = %4
  %19 = load i32, ptr %6, align 4
  %20 = icmp ne i32 %19, 0
  %21 = xor i1 %20, true
  br label %22

22:                                               ; preds = %18, %4
  %23 = phi i1 [ true, %4 ], [ %21, %18 ]
  %24 = zext i1 %23 to i32
  %25 = trunc i32 %24 to i8
  %26 = load ptr, ptr %7, align 8
  %27 = getelementptr inbounds nuw %struct.SequenceHeader, ptr %26, i32 0, i32 26
  store i8 %25, ptr %27, align 4
  %28 = load ptr, ptr %7, align 8
  %29 = getelementptr inbounds nuw %struct.SequenceHeader, ptr %28, i32 0, i32 24
  %30 = load i8, ptr %29, align 1
  %31 = sext i8 %30 to i32
  %32 = icmp ne i32 %31, 1
  br i1 %32, label %33, label %36

33:                                               ; preds = %22
  %34 = load ptr, ptr %5, align 8
  %35 = call i32 @aom_rb_read_bit(ptr noundef %34)
  br label %37

36:                                               ; preds = %22
  br label %37

37:                                               ; preds = %36, %33
  %38 = phi i32 [ %35, %33 ], [ 0, %36 ]
  store i32 %38, ptr %9, align 4
  %39 = load i32, ptr %9, align 4
  %40 = trunc i32 %39 to i8
  %41 = load ptr, ptr %7, align 8
  %42 = getelementptr inbounds nuw %struct.SequenceHeader, ptr %41, i32 0, i32 27
  store i8 %40, ptr %42, align 1
  %43 = load ptr, ptr %5, align 8
  %44 = call i32 @aom_rb_read_bit(ptr noundef %43)
  store i32 %44, ptr %10, align 4
  %45 = load i32, ptr %10, align 4
  %46 = icmp ne i32 %45, 0
  br i1 %46, label %47, label %60

47:                                               ; preds = %37
  %48 = load ptr, ptr %5, align 8
  %49 = call i32 @aom_rb_read_literal(ptr noundef %48, i32 noundef 8)
  %50 = load ptr, ptr %7, align 8
  %51 = getelementptr inbounds nuw %struct.SequenceHeader, ptr %50, i32 0, i32 28
  store i32 %49, ptr %51, align 8
  %52 = load ptr, ptr %5, align 8
  %53 = call i32 @aom_rb_read_literal(ptr noundef %52, i32 noundef 8)
  %54 = load ptr, ptr %7, align 8
  %55 = getelementptr inbounds nuw %struct.SequenceHeader, ptr %54, i32 0, i32 29
  store i32 %53, ptr %55, align 4
  %56 = load ptr, ptr %5, align 8
  %57 = call i32 @aom_rb_read_literal(ptr noundef %56, i32 noundef 8)
  %58 = load ptr, ptr %7, align 8
  %59 = getelementptr inbounds nuw %struct.SequenceHeader, ptr %58, i32 0, i32 30
  store i32 %57, ptr %59, align 8
  br label %67

60:                                               ; preds = %37
  %61 = load ptr, ptr %7, align 8
  %62 = getelementptr inbounds nuw %struct.SequenceHeader, ptr %61, i32 0, i32 28
  store i32 2, ptr %62, align 8
  %63 = load ptr, ptr %7, align 8
  %64 = getelementptr inbounds nuw %struct.SequenceHeader, ptr %63, i32 0, i32 29
  store i32 2, ptr %64, align 4
  %65 = load ptr, ptr %7, align 8
  %66 = getelementptr inbounds nuw %struct.SequenceHeader, ptr %65, i32 0, i32 30
  store i32 2, ptr %66, align 8
  br label %67

67:                                               ; preds = %60, %47
  %68 = load i32, ptr %9, align 4
  %69 = icmp ne i32 %68, 0
  br i1 %69, label %70, label %83

70:                                               ; preds = %67
  %71 = load ptr, ptr %5, align 8
  %72 = call i32 @aom_rb_read_bit(ptr noundef %71)
  %73 = load ptr, ptr %7, align 8
  %74 = getelementptr inbounds nuw %struct.SequenceHeader, ptr %73, i32 0, i32 31
  store i32 %72, ptr %74, align 4
  %75 = load ptr, ptr %7, align 8
  %76 = getelementptr inbounds nuw %struct.SequenceHeader, ptr %75, i32 0, i32 32
  store i32 1, ptr %76, align 8
  %77 = load ptr, ptr %7, align 8
  %78 = getelementptr inbounds nuw %struct.SequenceHeader, ptr %77, i32 0, i32 33
  store i32 1, ptr %78, align 4
  %79 = load ptr, ptr %7, align 8
  %80 = getelementptr inbounds nuw %struct.SequenceHeader, ptr %79, i32 0, i32 34
  store i32 0, ptr %80, align 8
  %81 = load ptr, ptr %7, align 8
  %82 = getelementptr inbounds nuw %struct.SequenceHeader, ptr %81, i32 0, i32 35
  store i8 0, ptr %82, align 4
  br label %219

83:                                               ; preds = %67
  %84 = load ptr, ptr %7, align 8
  %85 = getelementptr inbounds nuw %struct.SequenceHeader, ptr %84, i32 0, i32 28
  %86 = load i32, ptr %85, align 8
  %87 = icmp eq i32 %86, 1
  br i1 %87, label %88, label %124

88:                                               ; preds = %83
  %89 = load ptr, ptr %7, align 8
  %90 = getelementptr inbounds nuw %struct.SequenceHeader, ptr %89, i32 0, i32 29
  %91 = load i32, ptr %90, align 4
  %92 = icmp eq i32 %91, 13
  br i1 %92, label %93, label %124

93:                                               ; preds = %88
  %94 = load ptr, ptr %7, align 8
  %95 = getelementptr inbounds nuw %struct.SequenceHeader, ptr %94, i32 0, i32 30
  %96 = load i32, ptr %95, align 8
  %97 = icmp eq i32 %96, 0
  br i1 %97, label %98, label %124

98:                                               ; preds = %93
  %99 = load ptr, ptr %7, align 8
  %100 = getelementptr inbounds nuw %struct.SequenceHeader, ptr %99, i32 0, i32 32
  store i32 0, ptr %100, align 8
  %101 = load ptr, ptr %7, align 8
  %102 = getelementptr inbounds nuw %struct.SequenceHeader, ptr %101, i32 0, i32 33
  store i32 0, ptr %102, align 4
  %103 = load ptr, ptr %7, align 8
  %104 = getelementptr inbounds nuw %struct.SequenceHeader, ptr %103, i32 0, i32 31
  store i32 1, ptr %104, align 4
  %105 = load ptr, ptr %7, align 8
  %106 = getelementptr inbounds nuw %struct.SequenceHeader, ptr %105, i32 0, i32 24
  %107 = load i8, ptr %106, align 1
  %108 = sext i8 %107 to i32
  %109 = icmp eq i32 %108, 1
  br i1 %109, label %123, label %110

110:                                              ; preds = %98
  %111 = load ptr, ptr %7, align 8
  %112 = getelementptr inbounds nuw %struct.SequenceHeader, ptr %111, i32 0, i32 24
  %113 = load i8, ptr %112, align 1
  %114 = sext i8 %113 to i32
  %115 = icmp eq i32 %114, 2
  br i1 %115, label %116, label %121

116:                                              ; preds = %110
  %117 = load ptr, ptr %7, align 8
  %118 = getelementptr inbounds nuw %struct.SequenceHeader, ptr %117, i32 0, i32 25
  %119 = load i32, ptr %118, align 8
  %120 = icmp eq i32 %119, 12
  br i1 %120, label %123, label %121

121:                                              ; preds = %116, %110
  %122 = load ptr, ptr %8, align 8
  call void (ptr, i32, ptr, ...) @aom_internal_error(ptr noundef %122, i32 noundef 5, ptr noundef @.str.8)
  br label %123

123:                                              ; preds = %121, %116, %98
  br label %213

124:                                              ; preds = %93, %88, %83
  %125 = load ptr, ptr %5, align 8
  %126 = call i32 @aom_rb_read_bit(ptr noundef %125)
  %127 = load ptr, ptr %7, align 8
  %128 = getelementptr inbounds nuw %struct.SequenceHeader, ptr %127, i32 0, i32 31
  store i32 %126, ptr %128, align 4
  %129 = load ptr, ptr %7, align 8
  %130 = getelementptr inbounds nuw %struct.SequenceHeader, ptr %129, i32 0, i32 24
  %131 = load i8, ptr %130, align 1
  %132 = sext i8 %131 to i32
  %133 = icmp eq i32 %132, 0
  br i1 %133, label %134, label %139

134:                                              ; preds = %124
  %135 = load ptr, ptr %7, align 8
  %136 = getelementptr inbounds nuw %struct.SequenceHeader, ptr %135, i32 0, i32 33
  store i32 1, ptr %136, align 4
  %137 = load ptr, ptr %7, align 8
  %138 = getelementptr inbounds nuw %struct.SequenceHeader, ptr %137, i32 0, i32 32
  store i32 1, ptr %138, align 8
  br label %180

139:                                              ; preds = %124
  %140 = load ptr, ptr %7, align 8
  %141 = getelementptr inbounds nuw %struct.SequenceHeader, ptr %140, i32 0, i32 24
  %142 = load i8, ptr %141, align 1
  %143 = sext i8 %142 to i32
  %144 = icmp eq i32 %143, 1
  br i1 %144, label %145, label %150

145:                                              ; preds = %139
  %146 = load ptr, ptr %7, align 8
  %147 = getelementptr inbounds nuw %struct.SequenceHeader, ptr %146, i32 0, i32 33
  store i32 0, ptr %147, align 4
  %148 = load ptr, ptr %7, align 8
  %149 = getelementptr inbounds nuw %struct.SequenceHeader, ptr %148, i32 0, i32 32
  store i32 0, ptr %149, align 8
  br label %179

150:                                              ; preds = %139
  %151 = load ptr, ptr %7, align 8
  %152 = getelementptr inbounds nuw %struct.SequenceHeader, ptr %151, i32 0, i32 25
  %153 = load i32, ptr %152, align 8
  %154 = icmp eq i32 %153, 12
  br i1 %154, label %155, label %173

155:                                              ; preds = %150
  %156 = load ptr, ptr %5, align 8
  %157 = call i32 @aom_rb_read_bit(ptr noundef %156)
  %158 = load ptr, ptr %7, align 8
  %159 = getelementptr inbounds nuw %struct.SequenceHeader, ptr %158, i32 0, i32 32
  store i32 %157, ptr %159, align 8
  %160 = load ptr, ptr %7, align 8
  %161 = getelementptr inbounds nuw %struct.SequenceHeader, ptr %160, i32 0, i32 32
  %162 = load i32, ptr %161, align 8
  %163 = icmp ne i32 %162, 0
  br i1 %163, label %164, label %169

164:                                              ; preds = %155
  %165 = load ptr, ptr %5, align 8
  %166 = call i32 @aom_rb_read_bit(ptr noundef %165)
  %167 = load ptr, ptr %7, align 8
  %168 = getelementptr inbounds nuw %struct.SequenceHeader, ptr %167, i32 0, i32 33
  store i32 %166, ptr %168, align 4
  br label %172

169:                                              ; preds = %155
  %170 = load ptr, ptr %7, align 8
  %171 = getelementptr inbounds nuw %struct.SequenceHeader, ptr %170, i32 0, i32 33
  store i32 0, ptr %171, align 4
  br label %172

172:                                              ; preds = %169, %164
  br label %178

173:                                              ; preds = %150
  %174 = load ptr, ptr %7, align 8
  %175 = getelementptr inbounds nuw %struct.SequenceHeader, ptr %174, i32 0, i32 32
  store i32 1, ptr %175, align 8
  %176 = load ptr, ptr %7, align 8
  %177 = getelementptr inbounds nuw %struct.SequenceHeader, ptr %176, i32 0, i32 33
  store i32 0, ptr %177, align 4
  br label %178

178:                                              ; preds = %173, %172
  br label %179

179:                                              ; preds = %178, %145
  br label %180

180:                                              ; preds = %179, %134
  %181 = load ptr, ptr %7, align 8
  %182 = getelementptr inbounds nuw %struct.SequenceHeader, ptr %181, i32 0, i32 30
  %183 = load i32, ptr %182, align 8
  %184 = icmp eq i32 %183, 0
  br i1 %184, label %185, label %197

185:                                              ; preds = %180
  %186 = load ptr, ptr %7, align 8
  %187 = getelementptr inbounds nuw %struct.SequenceHeader, ptr %186, i32 0, i32 32
  %188 = load i32, ptr %187, align 8
  %189 = icmp ne i32 %188, 0
  br i1 %189, label %195, label %190

190:                                              ; preds = %185
  %191 = load ptr, ptr %7, align 8
  %192 = getelementptr inbounds nuw %struct.SequenceHeader, ptr %191, i32 0, i32 33
  %193 = load i32, ptr %192, align 4
  %194 = icmp ne i32 %193, 0
  br i1 %194, label %195, label %197

195:                                              ; preds = %190, %185
  %196 = load ptr, ptr %8, align 8
  call void (ptr, i32, ptr, ...) @aom_internal_error(ptr noundef %196, i32 noundef 5, ptr noundef @.str.9)
  br label %197

197:                                              ; preds = %195, %190, %180
  %198 = load ptr, ptr %7, align 8
  %199 = getelementptr inbounds nuw %struct.SequenceHeader, ptr %198, i32 0, i32 32
  %200 = load i32, ptr %199, align 8
  %201 = icmp ne i32 %200, 0
  br i1 %201, label %202, label %212

202:                                              ; preds = %197
  %203 = load ptr, ptr %7, align 8
  %204 = getelementptr inbounds nuw %struct.SequenceHeader, ptr %203, i32 0, i32 33
  %205 = load i32, ptr %204, align 4
  %206 = icmp ne i32 %205, 0
  br i1 %206, label %207, label %212

207:                                              ; preds = %202
  %208 = load ptr, ptr %5, align 8
  %209 = call i32 @aom_rb_read_literal(ptr noundef %208, i32 noundef 2)
  %210 = load ptr, ptr %7, align 8
  %211 = getelementptr inbounds nuw %struct.SequenceHeader, ptr %210, i32 0, i32 34
  store i32 %209, ptr %211, align 8
  br label %212

212:                                              ; preds = %207, %202, %197
  br label %213

213:                                              ; preds = %212, %123
  %214 = load ptr, ptr %5, align 8
  %215 = call i32 @aom_rb_read_bit(ptr noundef %214)
  %216 = trunc i32 %215 to i8
  %217 = load ptr, ptr %7, align 8
  %218 = getelementptr inbounds nuw %struct.SequenceHeader, ptr %217, i32 0, i32 35
  store i8 %216, ptr %218, align 4
  br label %219

219:                                              ; preds = %213, %70
  ret void
}