; Function Attrs: nounwind uwtable
define hidden void @av1_read_color_config(ptr noundef %0, i32 noundef %1, ptr noundef captures(none) initializes((76, 78), (80, 104), (108, 109)) %2, ptr noundef %3) local_unnamed_addr #0 {
  %5 = tail call i32 @aom_rb_read_bit(ptr noundef %0) #16
  %6 = getelementptr inbounds nuw i8, ptr %2, i64 69
  %7 = load i8, ptr %6, align 1
  %8 = icmp eq i8 %7, 2
  %9 = icmp ne i32 %5, 0
  %or.cond.i = select i1 %8, i1 %9, i1 false
  br i1 %or.cond.i, label %10, label %14

10:                                               ; preds = %4
  %11 = tail call i32 @aom_rb_read_bit(ptr noundef %0) #16
  %.not.i = icmp eq i32 %11, 0
  %12 = select i1 %.not.i, i32 10, i32 12
  %13 = getelementptr inbounds nuw i8, ptr %2, i64 72
  store i32 %12, ptr %13, align 8
  br label %read_bitdepth.exit

14:                                               ; preds = %4
  %15 = icmp slt i8 %7, 3
  %16 = getelementptr inbounds nuw i8, ptr %2, i64 72
  br i1 %15, label %17, label %19

17:                                               ; preds = %14
  %18 = select i1 %9, i32 10, i32 8
  store i32 %18, ptr %16, align 8
  br label %read_bitdepth.exit

19:                                               ; preds = %14
  tail call void (ptr, i32, ptr, ...) @aom_internal_error(ptr noundef %3, i32 noundef 5, ptr noundef nonnull @.str.15) #16
  %.pre = load i32, ptr %16, align 8
  %20 = icmp ugt i32 %.pre, 8
  br label %read_bitdepth.exit

read_bitdepth.exit:                               ; preds = %10, %17, %19
  %21 = phi i1 [ true, %10 ], [ %9, %17 ], [ %20, %19 ]
  %22 = getelementptr inbounds nuw i8, ptr %2, i64 72
  %.not = icmp eq i32 %1, 0
  %23 = or i1 %.not, %21
  %24 = zext i1 %23 to i8
  %25 = getelementptr inbounds nuw i8, ptr %2, i64 76
  store i8 %24, ptr %25, align 4
  %26 = load i8, ptr %6, align 1
  %.not65 = icmp eq i8 %26, 1
  br i1 %.not65, label %29, label %27

27:                                               ; preds = %read_bitdepth.exit
  %28 = tail call i32 @aom_rb_read_bit(ptr noundef %0) #16
  br label %29

29:                                               ; preds = %read_bitdepth.exit, %27
  %30 = phi i32 [ %28, %27 ], [ 0, %read_bitdepth.exit ]
  %31 = trunc i32 %30 to i8
  %32 = getelementptr inbounds nuw i8, ptr %2, i64 77
  store i8 %31, ptr %32, align 1
  %33 = tail call i32 @aom_rb_read_bit(ptr noundef %0) #16
  %.not66 = icmp eq i32 %33, 0
  br i1 %.not66, label %40, label %34

34:                                               ; preds = %29
  %35 = tail call i32 @aom_rb_read_literal(ptr noundef %0, i32 noundef 8) #16
  %36 = getelementptr inbounds nuw i8, ptr %2, i64 80
  store i32 %35, ptr %36, align 8
  %37 = tail call i32 @aom_rb_read_literal(ptr noundef %0, i32 noundef 8) #16
  %38 = getelementptr inbounds nuw i8, ptr %2, i64 84
  store i32 %37, ptr %38, align 4
  %39 = tail call i32 @aom_rb_read_literal(ptr noundef %0, i32 noundef 8) #16
  br label %43

40:                                               ; preds = %29
  %41 = getelementptr inbounds nuw i8, ptr %2, i64 80
  store i32 2, ptr %41, align 8
  %42 = getelementptr inbounds nuw i8, ptr %2, i64 84
  store i32 2, ptr %42, align 4
  br label %43

43:                                               ; preds = %40, %34
  %44 = phi i32 [ 2, %40 ], [ %39, %34 ]
  %45 = getelementptr inbounds nuw i8, ptr %2, i64 88
  store i32 %44, ptr %45, align 8
  %.not67 = icmp eq i32 %30, 0
  br i1 %.not67, label %52, label %46

46:                                               ; preds = %43
  %47 = tail call i32 @aom_rb_read_bit(ptr noundef %0) #16
  %48 = getelementptr inbounds nuw i8, ptr %2, i64 92
  store i32 %47, ptr %48, align 4
  %49 = getelementptr inbounds nuw i8, ptr %2, i64 96
  store i32 1, ptr %49, align 8
  %50 = getelementptr inbounds nuw i8, ptr %2, i64 100
  store i32 1, ptr %50, align 4
  %51 = getelementptr inbounds nuw i8, ptr %2, i64 104
  store i32 0, ptr %51, align 8
  br label %114

52:                                               ; preds = %43
  %53 = getelementptr inbounds nuw i8, ptr %2, i64 80
  %54 = load i32, ptr %53, align 8
  %55 = icmp eq i32 %54, 1
  br i1 %55, label %56, label %70

56:                                               ; preds = %52
  %57 = getelementptr inbounds nuw i8, ptr %2, i64 84
  %58 = load i32, ptr %57, align 4
  %59 = icmp eq i32 %58, 13
  %60 = icmp eq i32 %44, 0
  %or.cond = select i1 %59, i1 %60, i1 false
  br i1 %or.cond, label %61, label %70

61:                                               ; preds = %56
  %62 = getelementptr inbounds nuw i8, ptr %2, i64 96
  store i32 0, ptr %62, align 8
  %63 = getelementptr inbounds nuw i8, ptr %2, i64 100
  store i32 0, ptr %63, align 4
  %64 = getelementptr inbounds nuw i8, ptr %2, i64 92
  store i32 1, ptr %64, align 4
  %65 = load i8, ptr %6, align 1
  switch i8 %65, label %69 [
    i8 1, label %111
    i8 2, label %66
  ]

66:                                               ; preds = %61
  %67 = load i32, ptr %22, align 8
  %68 = icmp eq i32 %67, 12
  br i1 %68, label %111, label %69

69:                                               ; preds = %61, %66
  tail call void (ptr, i32, ptr, ...) @aom_internal_error(ptr noundef %3, i32 noundef 5, ptr noundef nonnull @.str.8) #16
  br label %111

70:                                               ; preds = %56, %52
  %71 = tail call i32 @aom_rb_read_bit(ptr noundef %0) #16
  %72 = getelementptr inbounds nuw i8, ptr %2, i64 92
  store i32 %71, ptr %72, align 4
  %73 = load i8, ptr %6, align 1
  switch i8 %73, label %80 [
    i8 0, label %74
    i8 1, label %77
  ]

74:                                               ; preds = %70
  %75 = getelementptr inbounds nuw i8, ptr %2, i64 100
  store i32 1, ptr %75, align 4
  %76 = getelementptr inbounds nuw i8, ptr %2, i64 96
  store i32 1, ptr %76, align 8
  br label %95

77:                                               ; preds = %70
  %78 = getelementptr inbounds nuw i8, ptr %2, i64 100
  store i32 0, ptr %78, align 4
  %79 = getelementptr inbounds nuw i8, ptr %2, i64 96
  store i32 0, ptr %79, align 8
  br label %95

80:                                               ; preds = %70
  %81 = load i32, ptr %22, align 8
  %82 = icmp eq i32 %81, 12
  br i1 %82, label %83, label %92

83:                                               ; preds = %80
  %84 = tail call i32 @aom_rb_read_bit(ptr noundef %0) #16
  %85 = getelementptr inbounds nuw i8, ptr %2, i64 96
  store i32 %84, ptr %85, align 8
  %.not68 = icmp eq i32 %84, 0
  br i1 %.not68, label %90, label %86

86:                                               ; preds = %83
  %87 = tail call i32 @aom_rb_read_bit(ptr noundef %0) #16
  %88 = getelementptr inbounds nuw i8, ptr %2, i64 100
  store i32 %87, ptr %88, align 4
  %89 = icmp ne i32 %87, 0
  br label %95

90:                                               ; preds = %83
  %91 = getelementptr inbounds nuw i8, ptr %2, i64 100
  store i32 0, ptr %91, align 4
  br label %95

92:                                               ; preds = %80
  %93 = getelementptr inbounds nuw i8, ptr %2, i64 96
  store i32 1, ptr %93, align 8
  %94 = getelementptr inbounds nuw i8, ptr %2, i64 100
  store i32 0, ptr %94, align 4
  br label %95

95:                                               ; preds = %77, %86, %90, %92, %74
  %.not70 = phi i1 [ false, %77 ], [ %89, %86 ], [ false, %90 ], [ false, %92 ], [ true, %74 ]
  %96 = load i32, ptr %45, align 8
  %97 = icmp eq i32 %96, 0
  br i1 %97, label %98, label %102

98:                                               ; preds = %95
  %99 = getelementptr inbounds nuw i8, ptr %2, i64 96
  %100 = load i32, ptr %99, align 8
  %.not69 = icmp ne i32 %100, 0
  %brmerge = select i1 %.not69, i1 true, i1 %.not70
  br i1 %brmerge, label %101, label %102

101:                                              ; preds = %98
  tail call void (ptr, i32, ptr, ...) @aom_internal_error(ptr noundef %3, i32 noundef 5, ptr noundef nonnull @.str.9) #16
  br label %102

102:                                              ; preds = %98, %101, %95
  %103 = getelementptr inbounds nuw i8, ptr %2, i64 96
  %104 = load i32, ptr %103, align 8
  %.not71 = icmp eq i32 %104, 0
  br i1 %.not71, label %111, label %105

105:                                              ; preds = %102
  %106 = getelementptr inbounds nuw i8, ptr %2, i64 100
  %107 = load i32, ptr %106, align 4
  %.not72 = icmp eq i32 %107, 0
  br i1 %.not72, label %111, label %108

108:                                              ; preds = %105
  %109 = tail call i32 @aom_rb_read_literal(ptr noundef %0, i32 noundef 2) #16
  %110 = getelementptr inbounds nuw i8, ptr %2, i64 104
  store i32 %109, ptr %110, align 8
  br label %111

111:                                              ; preds = %61, %102, %105, %108, %66, %69
  %112 = tail call i32 @aom_rb_read_bit(ptr noundef %0) #16
  %113 = trunc i32 %112 to i8
  br label %114

114:                                              ; preds = %111, %46
  %.sink = phi i8 [ %113, %111 ], [ 0, %46 ]
  %115 = getelementptr inbounds nuw i8, ptr %2, i64 108
  store i8 %.sink, ptr %115, align 4
  ret void
}